target datalayout = "e-m:e-p270:32:32-p271:32:32-p272:64:64-i64:64-i128:128-f80:128-n8:16:32:64-S128"
target triple = "x86_64-pc-linux-gnu"

%struct.JSClassDef = type { ptr, ptr, ptr, ptr, ptr }
%struct.JSValue = type { %union.JSValueUnion, i64 }
%union.JSValueUnion = type { double }
%struct.JSRefCountHeader = type { i32 }
%struct.JSSTDFile = type { ptr, i32, i32 }

@.str.7 = private unnamed_addr constant [3 x i8] c"in\00", align 1
@.str.8 = private unnamed_addr constant [4 x i8] c"out\00", align 1
@.str.9 = private unnamed_addr constant [4 x i8] c"err\00", align 1
@stderr = external global ptr, align 8
@js_std_file_class_id = internal global i32 0, align 4
@js_std_file_class = internal global %struct.JSClassDef { ptr @.str.23, ptr @js_std_file_finalizer, ptr null, ptr null, ptr null }, align 8
@stdin = external global ptr, align 8
@stdout = external global ptr, align 8

; Function Attrs: nounwind uwtable
define internal void @JS_FreeValue(ptr noundef %0, i64 %1, i64 %2) #0 {
  %4 = alloca %struct.JSValue, align 8
  %5 = alloca ptr, align 8
  %6 = alloca ptr, align 8
  %7 = getelementptr inbounds { i64, i64 }, ptr %4, i32 0, i32 0
  store i64 %1, ptr %7, align 8
  %8 = getelementptr inbounds { i64, i64 }, ptr %4, i32 0, i32 1
  store i64 %2, ptr %8, align 8
  store ptr %0, ptr %5, align 8
  %9 = getelementptr inbounds %struct.JSValue, ptr %4, i32 0, i32 1
  %10 = load i64, ptr %9, align 8
  %11 = trunc i64 %10 to i32
  %12 = icmp uge i32 %11, -11
  br i1 %12, label %13, label %28

13:                                               ; preds = %3
  %14 = getelementptr inbounds %struct.JSValue, ptr %4, i32 0, i32 0
  %15 = load ptr, ptr %14, align 8
  store ptr %15, ptr %6, align 8
  %16 = load ptr, ptr %6, align 8
  %17 = getelementptr inbounds %struct.JSRefCountHeader, ptr %16, i32 0, i32 0
  %18 = load i32, ptr %17, align 4
  %19 = add i32 %18, -1
  store i32 %19, ptr %17, align 4
  %20 = icmp sle i32 %19, 0
  br i1 %20, label %21, label %27

21:                                               ; preds = %13
  %22 = load ptr, ptr %5, align 8
  %23 = getelementptr inbounds { i64, i64 }, ptr %4, i32 0, i32 0
  %24 = load i64, ptr %23, align 8
  %25 = getelementptr inbounds { i64, i64 }, ptr %4, i32 0, i32 1
  %26 = load i64, ptr %25, align 8
  call void @__JS_FreeValue(ptr noundef %22, i64 %24, i64 %26)
  br label %27

27:                                               ; preds = %21, %13
  br label %28

28:                                               ; preds = %27, %3
  ret void
}

; Function Attrs: nounwind uwtable
define internal i32 @JS_IsException(i64 %0, i64 %1) #0 {
  %3 = alloca %struct.JSValue, align 8
  %4 = getelementptr inbounds { i64, i64 }, ptr %3, i32 0, i32 0
  store i64 %0, ptr %4, align 8
  %5 = getelementptr inbounds { i64, i64 }, ptr %3, i32 0, i32 1
  store i64 %1, ptr %5, align 8
  %6 = getelementptr inbounds %struct.JSValue, ptr %3, i32 0, i32 1
  %7 = load i64, ptr %6, align 8
  %8 = trunc i64 %7 to i32
  %9 = icmp eq i32 %8, 6
  %10 = xor i1 %9, true
  %11 = xor i1 %10, true
  %12 = zext i1 %11 to i32
  %13 = sext i32 %12 to i64
  %14 = trunc i64 %13 to i32
  ret i32 %14
}

; Function Attrs: nounwind uwtable
define internal { i64, i64 } @js_new_std_file(ptr noundef %0, ptr noundef %1, i32 noundef %2, i32 noundef %3) #0 {
  %5 = alloca %struct.JSValue, align 8
  %6 = alloca ptr, align 8
  %7 = alloca ptr, align 8
  %8 = alloca i32, align 4
  %9 = alloca i32, align 4
  %10 = alloca ptr, align 8
  %11 = alloca %struct.JSValue, align 8
  %12 = alloca %struct.JSValue, align 8
  store ptr %0, ptr %6, align 8
  store ptr %1, ptr %7, align 8
  store i32 %2, ptr %8, align 4
  store i32 %3, ptr %9, align 4
  %13 = load ptr, ptr %6, align 8
  %14 = load i32, ptr @js_std_file_class_id, align 4
  %15 = call { i64, i64 } @JS_NewObjectClass(ptr noundef %13, i32 noundef %14)
  %16 = getelementptr inbounds { i64, i64 }, ptr %12, i32 0, i32 0
  %17 = extractvalue { i64, i64 } %15, 0
  store i64 %17, ptr %16, align 8
  %18 = getelementptr inbounds { i64, i64 }, ptr %12, i32 0, i32 1
  %19 = extractvalue { i64, i64 } %15, 1
  store i64 %19, ptr %18, align 8
  call void @llvm.memcpy.p0.p0.i64(ptr align 8 %11, ptr align 8 %12, i64 16, i1 false)
  %20 = getelementptr inbounds { i64, i64 }, ptr %11, i32 0, i32 0
  %21 = load i64, ptr %20, align 8
  %22 = getelementptr inbounds { i64, i64 }, ptr %11, i32 0, i32 1
  %23 = load i64, ptr %22, align 8
  %24 = call i32 @JS_IsException(i64 %21, i64 %23)
  %25 = icmp ne i32 %24, 0
  br i1 %25, label %26, label %27

26:                                               ; preds = %4
  call void @llvm.memcpy.p0.p0.i64(ptr align 8 %5, ptr align 8 %11, i64 16, i1 false)
  br label %55

27:                                               ; preds = %4
  %28 = load ptr, ptr %6, align 8
  %29 = call ptr @js_mallocz(ptr noundef %28, i64 noundef 16)
  store ptr %29, ptr %10, align 8
  %30 = load ptr, ptr %10, align 8
  %31 = icmp ne ptr %30, null
  br i1 %31, label %40, label %32

32:                                               ; preds = %27
  %33 = load ptr, ptr %6, align 8
  %34 = getelementptr inbounds { i64, i64 }, ptr %11, i32 0, i32 0
  %35 = load i64, ptr %34, align 8
  %36 = getelementptr inbounds { i64, i64 }, ptr %11, i32 0, i32 1
  %37 = load i64, ptr %36, align 8
  call void @JS_FreeValue(ptr noundef %33, i64 %35, i64 %37)
  %38 = getelementptr inbounds %struct.JSValue, ptr %5, i32 0, i32 0
  store i32 0, ptr %38, align 8
  %39 = getelementptr inbounds %struct.JSValue, ptr %5, i32 0, i32 1
  store i64 6, ptr %39, align 8
  br label %55

40:                                               ; preds = %27
  %41 = load i32, ptr %8, align 4
  %42 = load ptr, ptr %10, align 8
  %43 = getelementptr inbounds %struct.JSSTDFile, ptr %42, i32 0, i32 1
  store i32 %41, ptr %43, align 8
  %44 = load i32, ptr %9, align 4
  %45 = load ptr, ptr %10, align 8
  %46 = getelementptr inbounds %struct.JSSTDFile, ptr %45, i32 0, i32 2
  store i32 %44, ptr %46, align 4
  %47 = load ptr, ptr %7, align 8
  %48 = load ptr, ptr %10, align 8
  %49 = getelementptr inbounds %struct.JSSTDFile, ptr %48, i32 0, i32 0
  store ptr %47, ptr %49, align 8
  %50 = load ptr, ptr %10, align 8
  %51 = getelementptr inbounds { i64, i64 }, ptr %11, i32 0, i32 0
  %52 = load i64, ptr %51, align 8
  %53 = getelementptr inbounds { i64, i64 }, ptr %11, i32 0, i32 1
  %54 = load i64, ptr %53, align 8
  call void @JS_SetOpaque(i64 %52, i64 %54, ptr noundef %50)
  call void @llvm.memcpy.p0.p0.i64(ptr align 8 %5, ptr align 8 %11, i64 16, i1 false)
  br label %55

55:                                               ; preds = %40, %32, %26
  %56 = load { i64, i64 }, ptr %5, align 8
  ret { i64, i64 } %56
}

; Function Attrs: nounwind uwtable
define internal i32 @js_std_init(ptr noundef %0, ptr noundef %1) #0 {
  %3 = alloca ptr, align 8
  %4 = alloca ptr, align 8
  %5 = alloca %struct.JSValue, align 8
  %6 = alloca %struct.JSValue, align 8
  %7 = alloca %struct.JSValue, align 8
  %8 = alloca %struct.JSValue, align 8
  %9 = alloca %struct.JSValue, align 8
  store ptr %0, ptr %3, align 8
  store ptr %1, ptr %4, align 8
  %10 = call i32 @JS_NewClassID(ptr noundef @js_std_file_class_id)
  %11 = load ptr, ptr %3, align 8
  %12 = call ptr @JS_GetRuntime(ptr noundef %11)
  %13 = load i32, ptr @js_std_file_class_id, align 4
  %14 = call i32 @JS_NewClass(ptr noundef %12, i32 noundef %13, ptr noundef @js_std_file_class)
  %15 = load ptr, ptr %3, align 8
  %16 = call { i64, i64 } @JS_NewObject(ptr noundef %15)
  %17 = getelementptr inbounds { i64, i64 }, ptr %6, i32 0, i32 0
  %18 = extractvalue { i64, i64 } %16, 0
  store i64 %18, ptr %17, align 8
  %19 = getelementptr inbounds { i64, i64 }, ptr %6, i32 0, i32 1
  %20 = extractvalue { i64, i64 } %16, 1
  store i64 %20, ptr %19, align 8
  call void @llvm.memcpy.p0.p0.i64(ptr align 8 %5, ptr align 8 %6, i64 16, i1 false)
  %21 = load ptr, ptr %3, align 8
  %22 = getelementptr inbounds { i64, i64 }, ptr %5, i32 0, i32 0
  %23 = load i64, ptr %22, align 8
  %24 = getelementptr inbounds { i64, i64 }, ptr %5, i32 0, i32 1
  %25 = load i64, ptr %24, align 8
  call void @JS_SetPropertyFunctionList(ptr noundef %21, i64 %23, i64 %25, ptr noundef @js_std_file_proto_funcs, i32 noundef 17)
  %26 = load ptr, ptr %3, align 8
  %27 = load i32, ptr @js_std_file_class_id, align 4
  %28 = getelementptr inbounds { i64, i64 }, ptr %5, i32 0, i32 0
  %29 = load i64, ptr %28, align 8
  %30 = getelementptr inbounds { i64, i64 }, ptr %5, i32 0, i32 1
  %31 = load i64, ptr %30, align 8
  call void @JS_SetClassProto(ptr noundef %26, i32 noundef %27, i64 %29, i64 %31)
  %32 = load ptr, ptr %3, align 8
  %33 = load ptr, ptr %4, align 8
  %34 = call i32 @JS_SetModuleExportList(ptr noundef %32, ptr noundef %33, ptr noundef @js_std_funcs, i32 noundef 23)
  %35 = load ptr, ptr %3, align 8
  %36 = load ptr, ptr %4, align 8
  %37 = load ptr, ptr %3, align 8
  %38 = load ptr, ptr @stdin, align 8
  %39 = call { i64, i64 } @js_new_std_file(ptr noundef %37, ptr noundef %38, i32 noundef 0, i32 noundef 0)
  %40 = getelementptr inbounds { i64, i64 }, ptr %7, i32 0, i32 0
  %41 = extractvalue { i64, i64 } %39, 0
  store i64 %41, ptr %40, align 8
  %42 = getelementptr inbounds { i64, i64 }, ptr %7, i32 0, i32 1
  %43 = extractvalue { i64, i64 } %39, 1
  store i64 %43, ptr %42, align 8
  %44 = getelementptr inbounds { i64, i64 }, ptr %7, i32 0, i32 0
  %45 = load i64, ptr %44, align 8
  %46 = getelementptr inbounds { i64, i64 }, ptr %7, i32 0, i32 1
  %47 = load i64, ptr %46, align 8
  %48 = call i32 @JS_SetModuleExport(ptr noundef %35, ptr noundef %36, ptr noundef @.str.7, i64 %45, i64 %47)
  %49 = load ptr, ptr %3, align 8
  %50 = load ptr, ptr %4, align 8
  %51 = load ptr, ptr %3, align 8
  %52 = load ptr, ptr @stdout, align 8
  %53 = call { i64, i64 } @js_new_std_file(ptr noundef %51, ptr noundef %52, i32 noundef 0, i32 noundef 0)
  %54 = getelementptr inbounds { i64, i64 }, ptr %8, i32 0, i32 0
  %55 = extractvalue { i64, i64 } %53, 0
  store i64 %55, ptr %54, align 8
  %56 = getelementptr inbounds { i64, i64 }, ptr %8, i32 0, i32 1
  %57 = extractvalue { i64, i64 } %53, 1
  store i64 %57, ptr %56, align 8
  %58 = getelementptr inbounds { i64, i64 }, ptr %8, i32 0, i32 0
  %59 = load i64, ptr %58, align 8
  %60 = getelementptr inbounds { i64, i64 }, ptr %8, i32 0, i32 1
  %61 = load i64, ptr %60, align 8
  %62 = call i32 @JS_SetModuleExport(ptr noundef %49, ptr noundef %50, ptr noundef @.str.8, i64 %59, i64 %61)
  %63 = load ptr, ptr %3, align 8
  %64 = load ptr, ptr %4, align 8
  %65 = load ptr, ptr %3, align 8
  %66 = load ptr, ptr @stderr, align 8
  %67 = call { i64, i64 } @js_new_std_file(ptr noundef %65, ptr noundef %66, i32 noundef 0, i32 noundef 0)
  %68 = getelementptr inbounds { i64, i64 }, ptr %9, i32 0, i32 0
  %69 = extractvalue { i64, i64 } %67, 0
  store i64 %69, ptr %68, align 8
  %70 = getelementptr inbounds { i64, i64 }, ptr %9, i32 0, i32 1
  %71 = extractvalue { i64, i64 } %67, 1
  store i64 %71, ptr %70, align 8
  %72 = getelementptr inbounds { i64, i64 }, ptr %9, i32 0, i32 0
  %73 = load i64, ptr %72, align 8
  %74 = getelementptr inbounds { i64, i64 }, ptr %9, i32 0, i32 1
  %75 = load i64, ptr %74, align 8
  %76 = call i32 @JS_SetModuleExport(ptr noundef %63, ptr noundef %64, ptr noundef @.str.9, i64 %73, i64 %75)
  ret i32 0
}