; Function Attrs: nounwind uwtable
define internal noundef i32 @js_std_init(ptr noundef %0, ptr noundef %1) #0 {
  %3 = tail call i32 @JS_NewClassID(ptr noundef nonnull @js_std_file_class_id) #29
  %4 = tail call ptr @JS_GetRuntime(ptr noundef %0) #29
  %5 = load i32, ptr @js_std_file_class_id, align 4
  %6 = tail call i32 @JS_NewClass(ptr noundef %4, i32 noundef %5, ptr noundef nonnull @js_std_file_class) #29
  %7 = tail call { i64, i64 } @JS_NewObject(ptr noundef %0) #29
  %8 = extractvalue { i64, i64 } %7, 0
  %9 = extractvalue { i64, i64 } %7, 1
  tail call void @JS_SetPropertyFunctionList(ptr noundef %0, i64 %8, i64 %9, ptr noundef nonnull @js_std_file_proto_funcs, i32 noundef 17) #29
  %10 = load i32, ptr @js_std_file_class_id, align 4
  tail call void @JS_SetClassProto(ptr noundef %0, i32 noundef %10, i64 %8, i64 %9) #29
  %11 = tail call i32 @JS_SetModuleExportList(ptr noundef %0, ptr noundef %1, ptr noundef nonnull @js_std_funcs, i32 noundef 23) #29
  %12 = load ptr, ptr @stdin, align 8
  %13 = load i32, ptr @js_std_file_class_id, align 4
  %14 = tail call { i64, i64 } @JS_NewObjectClass(ptr noundef %0, i32 noundef %13) #29
  %15 = extractvalue { i64, i64 } %14, 0
  %16 = extractvalue { i64, i64 } %14, 1
  %17 = and i64 %16, 4294967295
  %.not.i = icmp eq i64 %17, 6
  br i1 %.not.i, label %18, label %19

18:                                               ; preds = %2
  %.sroa.4.0.extract.shift.i = and i64 %15, -4294967296
  br label %js_new_std_file.exit

19:                                               ; preds = %2
  %20 = tail call ptr @js_mallocz(ptr noundef %0, i64 noundef 16) #29
  %.not24.i = icmp eq ptr %20, null
  br i1 %.not24.i, label %21, label %30

21:                                               ; preds = %19
  %22 = trunc i64 %16 to i32
  %23 = icmp ugt i32 %22, -12
  br i1 %23, label %24, label %js_new_std_file.exit

24:                                               ; preds = %21
  %25 = inttoptr i64 %15 to ptr
  %26 = load i32, ptr %25, align 4
  %27 = add i32 %26, -1
  store i32 %27, ptr %25, align 4
  %28 = icmp slt i32 %27, 1
  br i1 %28, label %29, label %js_new_std_file.exit

29:                                               ; preds = %24
  tail call void @__JS_FreeValue(ptr noundef %0, i64 %15, i64 %16) #29
  br label %js_new_std_file.exit

30:                                               ; preds = %19
  %31 = getelementptr inbounds i8, ptr %20, i64 8
  store i32 0, ptr %31, align 8
  %32 = getelementptr inbounds i8, ptr %20, i64 12
  store i32 0, ptr %32, align 4
  store ptr %12, ptr %20, align 8
  tail call void @JS_SetOpaque(i64 %15, i64 %16, ptr noundef nonnull %20) #29
  %.sroa.4.0.extract.shift20.i = and i64 %15, -4294967296
  br label %js_new_std_file.exit

js_new_std_file.exit:                             ; preds = %18, %21, %24, %29, %30
  %.sroa.018.0.i = phi i64 [ %15, %18 ], [ %15, %30 ], [ 0, %21 ], [ 0, %24 ], [ 0, %29 ]
  %.sroa.4.sroa.0.0.i = phi i64 [ %.sroa.4.0.extract.shift.i, %18 ], [ %.sroa.4.0.extract.shift20.i, %30 ], [ 0, %21 ], [ 0, %24 ], [ 0, %29 ]
  %.sroa.4.sroa.3.0.i = phi i64 [ %16, %18 ], [ %16, %30 ], [ 6, %21 ], [ 6, %24 ], [ 6, %29 ]
  %.sroa.018.0.insert.ext.i = and i64 %.sroa.018.0.i, 4294967295
  %.sroa.018.0.insert.insert.i = or disjoint i64 %.sroa.4.sroa.0.0.i, %.sroa.018.0.insert.ext.i
  %33 = tail call i32 @JS_SetModuleExport(ptr noundef %0, ptr noundef %1, ptr noundef nonnull @.str.7, i64 %.sroa.018.0.insert.insert.i, i64 %.sroa.4.sroa.3.0.i) #29
  %34 = load ptr, ptr @stdout, align 8
  %35 = load i32, ptr @js_std_file_class_id, align 4
  %36 = tail call { i64, i64 } @JS_NewObjectClass(ptr noundef %0, i32 noundef %35) #29
  %37 = extractvalue { i64, i64 } %36, 0
  %38 = extractvalue { i64, i64 } %36, 1
  %39 = and i64 %38, 4294967295
  %.not.i24 = icmp eq i64 %39, 6
  br i1 %.not.i24, label %40, label %41

40:                                               ; preds = %js_new_std_file.exit
  %.sroa.4.0.extract.shift.i34 = and i64 %37, -4294967296
  br label %js_new_std_file.exit35

41:                                               ; preds = %js_new_std_file.exit
  %42 = tail call ptr @js_mallocz(ptr noundef %0, i64 noundef 16) #29
  %.not24.i25 = icmp eq ptr %42, null
  br i1 %.not24.i25, label %43, label %52

43:                                               ; preds = %41
  %44 = trunc i64 %38 to i32
  %45 = icmp ugt i32 %44, -12
  br i1 %45, label %46, label %js_new_std_file.exit35

46:                                               ; preds = %43
  %47 = inttoptr i64 %37 to ptr
  %48 = load i32, ptr %47, align 4
  %49 = add i32 %48, -1
  store i32 %49, ptr %47, align 4
  %50 = icmp slt i32 %49, 1
  br i1 %50, label %51, label %js_new_std_file.exit35

51:                                               ; preds = %46
  tail call void @__JS_FreeValue(ptr noundef %0, i64 %37, i64 %38) #29
  br label %js_new_std_file.exit35

52:                                               ; preds = %41
  %53 = getelementptr inbounds i8, ptr %42, i64 8
  store i32 0, ptr %53, align 8
  %54 = getelementptr inbounds i8, ptr %42, i64 12
  store i32 0, ptr %54, align 4
  store ptr %34, ptr %42, align 8
  tail call void @JS_SetOpaque(i64 %37, i64 %38, ptr noundef nonnull %42) #29
  %.sroa.4.0.extract.shift20.i26 = and i64 %37, -4294967296
  br label %js_new_std_file.exit35

js_new_std_file.exit35:                           ; preds = %40, %43, %46, %51, %52
  %.sroa.018.0.i27 = phi i64 [ %37, %40 ], [ %37, %52 ], [ 0, %43 ], [ 0, %46 ], [ 0, %51 ]
  %.sroa.4.sroa.0.0.i28 = phi i64 [ %.sroa.4.0.extract.shift.i34, %40 ], [ %.sroa.4.0.extract.shift20.i26, %52 ], [ 0, %43 ], [ 0, %46 ], [ 0, %51 ]
  %.sroa.4.sroa.3.0.i29 = phi i64 [ %38, %40 ], [ %38, %52 ], [ 6, %43 ], [ 6, %46 ], [ 6, %51 ]
  %.sroa.018.0.insert.ext.i30 = and i64 %.sroa.018.0.i27, 4294967295
  %.sroa.018.0.insert.insert.i31 = or disjoint i64 %.sroa.4.sroa.0.0.i28, %.sroa.018.0.insert.ext.i30
  %55 = tail call i32 @JS_SetModuleExport(ptr noundef %0, ptr noundef %1, ptr noundef nonnull @.str.8, i64 %.sroa.018.0.insert.insert.i31, i64 %.sroa.4.sroa.3.0.i29) #29
  %56 = load ptr, ptr @stderr, align 8
  %57 = load i32, ptr @js_std_file_class_id, align 4
  %58 = tail call { i64, i64 } @JS_NewObjectClass(ptr noundef %0, i32 noundef %57) #29
  %59 = extractvalue { i64, i64 } %58, 0
  %60 = extractvalue { i64, i64 } %58, 1
  %61 = and i64 %60, 4294967295
  %.not.i36 = icmp eq i64 %61, 6
  br i1 %.not.i36, label %62, label %63

62:                                               ; preds = %js_new_std_file.exit35
  %.sroa.4.0.extract.shift.i46 = and i64 %59, -4294967296
  br label %js_new_std_file.exit47

63:                                               ; preds = %js_new_std_file.exit35
  %64 = tail call ptr @js_mallocz(ptr noundef %0, i64 noundef 16) #29
  %.not24.i37 = icmp eq ptr %64, null
  br i1 %.not24.i37, label %65, label %74

65:                                               ; preds = %63
  %66 = trunc i64 %60 to i32
  %67 = icmp ugt i32 %66, -12
  br i1 %67, label %68, label %js_new_std_file.exit47

68:                                               ; preds = %65
  %69 = inttoptr i64 %59 to ptr
  %70 = load i32, ptr %69, align 4
  %71 = add i32 %70, -1
  store i32 %71, ptr %69, align 4
  %72 = icmp slt i32 %71, 1
  br i1 %72, label %73, label %js_new_std_file.exit47

73:                                               ; preds = %68
  tail call void @__JS_FreeValue(ptr noundef %0, i64 %59, i64 %60) #29
  br label %js_new_std_file.exit47

74:                                               ; preds = %63
  %75 = getelementptr inbounds i8, ptr %64, i64 8
  store i32 0, ptr %75, align 8
  %76 = getelementptr inbounds i8, ptr %64, i64 12
  store i32 0, ptr %76, align 4
  store ptr %56, ptr %64, align 8
  tail call void @JS_SetOpaque(i64 %59, i64 %60, ptr noundef nonnull %64) #29
  %.sroa.4.0.extract.shift20.i38 = and i64 %59, -4294967296
  br label %js_new_std_file.exit47

js_new_std_file.exit47:                           ; preds = %62, %65, %68, %73, %74
  %.sroa.018.0.i39 = phi i64 [ %59, %62 ], [ %59, %74 ], [ 0, %65 ], [ 0, %68 ], [ 0, %73 ]
  %.sroa.4.sroa.0.0.i40 = phi i64 [ %.sroa.4.0.extract.shift.i46, %62 ], [ %.sroa.4.0.extract.shift20.i38, %74 ], [ 0, %65 ], [ 0, %68 ], [ 0, %73 ]
  %.sroa.4.sroa.3.0.i41 = phi i64 [ %60, %62 ], [ %60, %74 ], [ 6, %65 ], [ 6, %68 ], [ 6, %73 ]
  %.sroa.018.0.insert.ext.i42 = and i64 %.sroa.018.0.i39, 4294967295
  %.sroa.018.0.insert.insert.i43 = or disjoint i64 %.sroa.4.sroa.0.0.i40, %.sroa.018.0.insert.ext.i42
  %77 = tail call i32 @JS_SetModuleExport(ptr noundef %0, ptr noundef %1, ptr noundef nonnull @.str.9, i64 %.sroa.018.0.insert.insert.i43, i64 %.sroa.4.sroa.3.0.i41) #29
  ret i32 0
}